target datalayout = "e-m:e-p270:32:32-p271:32:32-p272:64:64-i64:64-i128:128-f80:128-n8:16:32:64-S128"
target triple = "x86_64-unknown-linux-gnu"

%"class.proxygen::HeaderCodec" = type { ptr, %"struct.proxygen::HTTPHeaderSize", i32, i64, ptr }
%"struct.proxygen::HTTPHeaderSize" = type { i32, i32, i32 }

; Function Attrs: mustprogress uwtable
define void @_ZN8proxygen10HPACKCodec20recordCompressedSizeEm(ptr noundef nonnull align 8 dereferenceable(408) %this, i64 noundef %size) #4 align 2 {
entry:
  %this.addr = alloca ptr, align 8
  %size.addr = alloca i64, align 8
  store ptr %this, ptr %this.addr, align 8
  store i64 %size, ptr %size.addr, align 8
  %this1 = load ptr, ptr %this.addr, align 8
  %0 = load i64, ptr %size.addr, align 8
  %conv = trunc i64 %0 to i32
  %encodedSize_ = getelementptr inbounds %"class.proxygen::HeaderCodec", ptr %this1, i32 0, i32 1
  %compressed = getelementptr inbounds %"struct.proxygen::HTTPHeaderSize", ptr %encodedSize_, i32 0, i32 0
  store i32 %conv, ptr %compressed, align 8
  %1 = load i64, ptr %size.addr, align 8
  %encodedSize_2 = getelementptr inbounds %"class.proxygen::HeaderCodec", ptr %this1, i32 0, i32 1
  %compressedBlock = getelementptr inbounds %"struct.proxygen::HTTPHeaderSize", ptr %encodedSize_2, i32 0, i32 2
  %2 = load i32, ptr %compressedBlock, align 8
  %conv3 = zext i32 %2 to i64
  %add = add i64 %conv3, %1
  %conv4 = trunc i64 %add to i32
  store i32 %conv4, ptr %compressedBlock, align 8
  %stats_ = getelementptr inbounds %"class.proxygen::HeaderCodec", ptr %this1, i32 0, i32 4
  %3 = load ptr, ptr %stats_, align 8
  %tobool = icmp ne ptr %3, null
  br i1 %tobool, label %if.then, label %if.end

if.then:                                          ; preds = %entry
  %stats_5 = getelementptr inbounds %"class.proxygen::HeaderCodec", ptr %this1, i32 0, i32 4
  %4 = load ptr, ptr %stats_5, align 8
  %encodedSize_6 = getelementptr inbounds %"class.proxygen::HeaderCodec", ptr %this1, i32 0, i32 1
  %vtable = load ptr, ptr %4, align 8
  %vfn = getelementptr inbounds ptr, ptr %vtable, i64 2
  %5 = load ptr, ptr %vfn, align 8
  call void %5(ptr noundef nonnull align 8 dereferenceable(8) %4, i8 noundef zeroext 1, ptr noundef nonnull align 4 dereferenceable(12) %encodedSize_6)
  br label %if.end

if.end:                                           ; preds = %if.then, %entry
  ret void
}