; Function Attrs: mustprogress uwtable
define void @_ZN8proxygen10HPACKCodec20recordCompressedSizeEm(ptr noundef nonnull align 8 dereferenceable(408) %this, i64 noundef %size) local_unnamed_addr #3 align 2 {
entry:
  %conv = trunc i64 %size to i32
  %encodedSize_ = getelementptr inbounds i8, ptr %this, i64 8
  store i32 %conv, ptr %encodedSize_, align 8
  %compressedBlock = getelementptr inbounds i8, ptr %this, i64 16
  %0 = load i32, ptr %compressedBlock, align 8
  %conv4 = add i32 %0, %conv
  store i32 %conv4, ptr %compressedBlock, align 8
  %stats_ = getelementptr inbounds i8, ptr %this, i64 32
  %1 = load ptr, ptr %stats_, align 8
  %tobool.not = icmp eq ptr %1, null
  br i1 %tobool.not, label %if.end, label %if.then

if.then:                                          ; preds = %entry
  %vtable = load ptr, ptr %1, align 8
  %vfn = getelementptr inbounds i8, ptr %vtable, i64 16
  %2 = load ptr, ptr %vfn, align 8
  tail call void %2(ptr noundef nonnull align 8 dereferenceable(8) %1, i8 noundef zeroext 1, ptr noundef nonnull align 4 dereferenceable(12) %encodedSize_)
  br label %if.end

if.end:                                           ; preds = %if.then, %entry
  ret void
}